target datalayout = "e-m:e-p270:32:32-p271:32:32-p272:64:64-i64:64-i128:128-f80:128-n8:16:32:64-S128"
target triple = "x86_64-pc-linux-gnu"

%struct.SurfaceDataRasInfo = type { %struct.SurfaceDataBounds, ptr, i32, i32, i32, i32, ptr, ptr, ptr, ptr, ptr, ptr, i32, %union.anon.0 }
%struct.SurfaceDataBounds = type { i32, i32, i32, i32 }
%union.anon.0 = type { ptr, [56 x i8] }

; Function Attrs: nounwind uwtable
define hidden void @Index12GrayToIndex8GrayConvert(ptr noundef %0, ptr noundef %1, i32 noundef %2, i32 noundef %3, ptr noundef %4, ptr noundef %5, ptr noundef %6, ptr noundef %7) #0 {
  %9 = alloca ptr, align 8
  %10 = alloca ptr, align 8
  %11 = alloca i32, align 4
  %12 = alloca i32, align 4
  %13 = alloca ptr, align 8
  %14 = alloca ptr, align 8
  %15 = alloca ptr, align 8
  %16 = alloca ptr, align 8
  %17 = alloca ptr, align 8
  %18 = alloca ptr, align 8
  %19 = alloca ptr, align 8
  %20 = alloca ptr, align 8
  %21 = alloca i32, align 4
  %22 = alloca i32, align 4
  %23 = alloca i32, align 4
  %24 = alloca i32, align 4
  store ptr %0, ptr %9, align 8
  store ptr %1, ptr %10, align 8
  store i32 %2, ptr %11, align 4
  store i32 %3, ptr %12, align 4
  store ptr %4, ptr %13, align 8
  store ptr %5, ptr %14, align 8
  store ptr %6, ptr %15, align 8
  store ptr %7, ptr %16, align 8
  %25 = load ptr, ptr %13, align 8
  %26 = getelementptr inbounds %struct.SurfaceDataRasInfo, ptr %25, i32 0, i32 6
  %27 = load ptr, ptr %26, align 8
  store ptr %27, ptr %17, align 8
  br label %28

28:                                               ; preds = %8
  %29 = load ptr, ptr %9, align 8
  store ptr %29, ptr %19, align 8
  %30 = load ptr, ptr %10, align 8
  store ptr %30, ptr %20, align 8
  %31 = load ptr, ptr %13, align 8
  %32 = getelementptr inbounds %struct.SurfaceDataRasInfo, ptr %31, i32 0, i32 4
  %33 = load i32, ptr %32, align 8
  store i32 %33, ptr %21, align 4
  %34 = load ptr, ptr %14, align 8
  %35 = getelementptr inbounds %struct.SurfaceDataRasInfo, ptr %34, i32 0, i32 4
  %36 = load i32, ptr %35, align 8
  store i32 %36, ptr %22, align 4
  %37 = load ptr, ptr %14, align 8
  %38 = getelementptr inbounds %struct.SurfaceDataRasInfo, ptr %37, i32 0, i32 11
  %39 = load ptr, ptr %38, align 8
  store ptr %39, ptr %18, align 8
  %40 = load i32, ptr %11, align 4
  %41 = mul i32 %40, 2
  %42 = load i32, ptr %21, align 4
  %43 = sub i32 %42, %41
  store i32 %43, ptr %21, align 4
  %44 = load i32, ptr %11, align 4
  %45 = mul i32 %44, 1
  %46 = load i32, ptr %22, align 4
  %47 = sub i32 %46, %45
  store i32 %47, ptr %22, align 4
  br label %48

48:                                               ; preds = %97, %28
  %49 = load i32, ptr %11, align 4
  store i32 %49, ptr %23, align 4
  br label %50

50:                                               ; preds = %80, %48
  br label %51

51:                                               ; preds = %50
  %52 = load ptr, ptr %17, align 8
  %53 = load ptr, ptr %19, align 8
  %54 = getelementptr inbounds i16, ptr %53, i64 0
  %55 = load i16, ptr %54, align 2
  %56 = zext i16 %55 to i32
  %57 = and i32 %56, 4095
  %58 = sext i32 %57 to i64
  %59 = getelementptr inbounds i32, ptr %52, i64 %58
  %60 = load i32, ptr %59, align 4
  %61 = trunc i32 %60 to i8
  %62 = zext i8 %61 to i32
  store i32 %62, ptr %24, align 4
  %63 = load ptr, ptr %18, align 8
  %64 = load i32, ptr %24, align 4
  %65 = sext i32 %64 to i64
  %66 = getelementptr inbounds i32, ptr %63, i64 %65
  %67 = load i32, ptr %66, align 4
  %68 = trunc i32 %67 to i8
  %69 = load ptr, ptr %20, align 8
  %70 = getelementptr inbounds i8, ptr %69, i64 0
  store i8 %68, ptr %70, align 1
  br label %71

71:                                               ; preds = %51
  %72 = load ptr, ptr %19, align 8
  %73 = ptrtoint ptr %72 to i64
  %74 = add nsw i64 %73, 2
  %75 = inttoptr i64 %74 to ptr
  store ptr %75, ptr %19, align 8
  %76 = load ptr, ptr %20, align 8
  %77 = ptrtoint ptr %76 to i64
  %78 = add nsw i64 %77, 1
  %79 = inttoptr i64 %78 to ptr
  store ptr %79, ptr %20, align 8
  br label %80

80:                                               ; preds = %71
  %81 = load i32, ptr %23, align 4
  %82 = add i32 %81, -1
  store i32 %82, ptr %23, align 4
  %83 = icmp ugt i32 %82, 0
  br i1 %83, label %50, label %84, !llvm.loop !13

84:                                               ; preds = %80
  %85 = load ptr, ptr %19, align 8
  %86 = ptrtoint ptr %85 to i64
  %87 = load i32, ptr %21, align 4
  %88 = sext i32 %87 to i64
  %89 = add nsw i64 %86, %88
  %90 = inttoptr i64 %89 to ptr
  store ptr %90, ptr %19, align 8
  %91 = load ptr, ptr %20, align 8
  %92 = ptrtoint ptr %91 to i64
  %93 = load i32, ptr %22, align 4
  %94 = sext i32 %93 to i64
  %95 = add nsw i64 %92, %94
  %96 = inttoptr i64 %95 to ptr
  store ptr %96, ptr %20, align 8
  br label %97

97:                                               ; preds = %84
  %98 = load i32, ptr %12, align 4
  %99 = add i32 %98, -1
  store i32 %99, ptr %12, align 4
  %100 = icmp ugt i32 %99, 0
  br i1 %100, label %48, label %101, !llvm.loop !14

101:                                              ; preds = %97
  br label %102

102:                                              ; preds = %101
  ret void
}