; Function Attrs: nofree norecurse nosync nounwind memory(readwrite, inaccessiblemem: none) uwtable
define hidden void @Index12GrayToIndex8GrayConvert(ptr noundef %0, ptr noundef %1, i32 noundef %2, i32 noundef %3, ptr nocapture noundef readonly %4, ptr nocapture noundef readonly %5, ptr nocapture readnone %6, ptr nocapture readnone %7) #0 {
  %9 = getelementptr inbounds i8, ptr %4, i64 40
  %10 = load ptr, ptr %9, align 8
  %11 = getelementptr inbounds i8, ptr %4, i64 32
  %12 = load i32, ptr %11, align 8
  %13 = getelementptr inbounds i8, ptr %5, i64 32
  %14 = load i32, ptr %13, align 8
  %15 = getelementptr inbounds i8, ptr %5, i64 80
  %16 = load ptr, ptr %15, align 8
  %17 = shl i32 %2, 1
  %18 = sub i32 %12, %17
  %19 = sub i32 %14, %2
  %20 = sext i32 %18 to i64
  %21 = sext i32 %19 to i64
  br label %22

22:                                               ; preds = %41, %8
  %.025 = phi ptr [ %0, %8 ], [ %43, %41 ]
  %.024 = phi ptr [ %1, %8 ], [ %45, %41 ]
  %.0 = phi i32 [ %3, %8 ], [ %46, %41 ]
  br label %23

23:                                               ; preds = %23, %22
  %.126 = phi ptr [ %.025, %22 ], [ %36, %23 ]
  %.1 = phi ptr [ %.024, %22 ], [ %39, %23 ]
  %.023 = phi i32 [ %2, %22 ], [ %40, %23 ]
  %24 = load i16, ptr %.126, align 2
  %25 = and i16 %24, 4095
  %26 = zext nneg i16 %25 to i64
  %27 = getelementptr inbounds i32, ptr %10, i64 %26
  %28 = load i32, ptr %27, align 4
  %29 = and i32 %28, 255
  %30 = zext nneg i32 %29 to i64
  %31 = getelementptr inbounds i32, ptr %16, i64 %30
  %32 = load i32, ptr %31, align 4
  %33 = trunc i32 %32 to i8
  store i8 %33, ptr %.1, align 1
  %34 = ptrtoint ptr %.126 to i64
  %35 = add nsw i64 %34, 2
  %36 = inttoptr i64 %35 to ptr
  %37 = ptrtoint ptr %.1 to i64
  %38 = add nsw i64 %37, 1
  %39 = inttoptr i64 %38 to ptr
  %40 = add i32 %.023, -1
  %.not = icmp eq i32 %40, 0
  br i1 %.not, label %41, label %23, !llvm.loop !13

41:                                               ; preds = %23
  %42 = add nsw i64 %35, %20
  %43 = inttoptr i64 %42 to ptr
  %44 = add nsw i64 %38, %21
  %45 = inttoptr i64 %44 to ptr
  %46 = add i32 %.0, -1
  %.not28 = icmp eq i32 %46, 0
  br i1 %.not28, label %47, label %22, !llvm.loop !14

47:                                               ; preds = %41
  ret void
}